target datalayout = "e-m:e-p270:32:32-p271:32:32-p272:64:64-i64:64-i128:128-f80:128-n8:16:32:64-S128"
target triple = "x86_64-pc-linux-gnu"

@filter = internal global i32 -1, align 4
@output_sq = internal global i32 0, align 4
@sane_ctype = external constant [256 x i8], align 16
@.str.117 = private unnamed_addr constant [4 x i8] c"'\\'\00", align 1
@stdout = external global ptr, align 8

; Function Attrs: inlinehint nounwind uwtable
define available_externally i32 @putchar(i32 noundef %0) #6 {
  %2 = alloca i32, align 4
  store i32 %0, ptr %2, align 4, !tbaa !4
  %3 = load i32, ptr %2, align 4, !tbaa !4
  %4 = load ptr, ptr @stdout, align 8, !tbaa !89
  %5 = call i32 @putc(i32 noundef %3, ptr noundef %4)
  ret i32 %5
}

; Function Attrs: nounwind uwtable
define internal void @show(ptr noundef %0) #0 {
  %2 = alloca ptr, align 8
  %3 = alloca i32, align 4
  %4 = alloca i32, align 4
  store ptr %0, ptr %2, align 8, !tbaa !11
  %5 = load i32, ptr @output_sq, align 4, !tbaa !4
  %6 = icmp ne i32 %5, 0
  br i1 %6, label %7, label %30

7:                                                ; preds = %1
  call void @llvm.lifetime.start.p0(i64 4, ptr %3) #11
  store i32 39, ptr %3, align 4, !tbaa !4
  call void @llvm.lifetime.start.p0(i64 4, ptr %4) #11
  %8 = load i32, ptr %3, align 4, !tbaa !4
  %9 = call i32 @putchar(i32 noundef %8)
  br label %10

10:                                               ; preds = %23, %7
  %11 = load ptr, ptr %2, align 8, !tbaa !11
  %12 = getelementptr inbounds nuw i8, ptr %11, i32 1
  store ptr %12, ptr %2, align 8, !tbaa !11
  %13 = load i8, ptr %11, align 1, !tbaa !39
  %14 = sext i8 %13 to i32
  store i32 %14, ptr %4, align 4, !tbaa !4
  %15 = icmp ne i32 %14, 0
  br i1 %15, label %16, label %26

16:                                               ; preds = %10
  %17 = load i32, ptr %4, align 4, !tbaa !4
  %18 = load i32, ptr %3, align 4, !tbaa !4
  %19 = icmp eq i32 %17, %18
  br i1 %19, label %20, label %23

20:                                               ; preds = %16
  %21 = load ptr, ptr @stdout, align 8, !tbaa !89
  %22 = call i32 @fputs(ptr noundef @.str.117, ptr noundef %21)
  br label %23

23:                                               ; preds = %20, %16
  %24 = load i32, ptr %4, align 4, !tbaa !4
  %25 = call i32 @putchar(i32 noundef %24)
  br label %10, !llvm.loop !101

26:                                               ; preds = %10
  %27 = load i32, ptr %3, align 4, !tbaa !4
  %28 = call i32 @putchar(i32 noundef %27)
  %29 = call i32 @putchar(i32 noundef 32)
  call void @llvm.lifetime.end.p0(i64 4, ptr %4) #11
  call void @llvm.lifetime.end.p0(i64 4, ptr %3) #11
  br label %33

30:                                               ; preds = %1
  %31 = load ptr, ptr %2, align 8, !tbaa !11
  %32 = call i32 @puts(ptr noundef %31)
  br label %33

33:                                               ; preds = %30, %26
  ret void
}

; Function Attrs: nounwind uwtable
define internal i32 @is_rev_argument(ptr noundef %0) #0 {
  %2 = alloca i32, align 4
  %3 = alloca ptr, align 8
  %4 = alloca ptr, align 8
  %5 = alloca i32, align 4
  %6 = alloca ptr, align 8
  %7 = alloca i32, align 4
  store ptr %0, ptr %3, align 8, !tbaa !11
  call void @llvm.lifetime.start.p0(i64 8, ptr %4) #11
  store ptr @is_rev_argument.rev_args, ptr %4, align 8, !tbaa !8
  %8 = load ptr, ptr %3, align 8, !tbaa !11
  %9 = load i8, ptr %8, align 1, !tbaa !39
  %10 = sext i8 %9 to i32
  %11 = icmp eq i32 %10, 45
  br i1 %11, label %12, label %23

12:                                               ; preds = %1
  %13 = load ptr, ptr %3, align 8, !tbaa !11
  %14 = getelementptr inbounds i8, ptr %13, i64 1
  %15 = load i8, ptr %14, align 1, !tbaa !39
  %16 = zext i8 %15 to i64
  %17 = getelementptr inbounds nuw [256 x i8], ptr @sane_ctype, i64 0, i64 %16
  %18 = load i8, ptr %17, align 1, !tbaa !39
  %19 = zext i8 %18 to i32
  %20 = and i32 %19, 2
  %21 = icmp ne i32 %20, 0
  br i1 %21, label %22, label %23

22:                                               ; preds = %12
  store i32 1, ptr %2, align 4
  store i32 1, ptr %5, align 4
  br label %60

23:                                               ; preds = %12, %1
  br label %24

24:                                               ; preds = %59, %23
  call void @llvm.lifetime.start.p0(i64 8, ptr %6) #11
  %25 = load ptr, ptr %4, align 8, !tbaa !8
  %26 = getelementptr inbounds nuw ptr, ptr %25, i32 1
  store ptr %26, ptr %4, align 8, !tbaa !8
  %27 = load ptr, ptr %25, align 8, !tbaa !11
  store ptr %27, ptr %6, align 8, !tbaa !11
  call void @llvm.lifetime.start.p0(i64 4, ptr %7) #11
  %28 = load ptr, ptr %6, align 8, !tbaa !11
  %29 = icmp ne ptr %28, null
  br i1 %29, label %31, label %30

30:                                               ; preds = %24
  store i32 0, ptr %2, align 4
  store i32 1, ptr %5, align 4
  br label %57

31:                                               ; preds = %24
  %32 = load ptr, ptr %6, align 8, !tbaa !11
  %33 = call i64 @strlen(ptr noundef %32) #12
  %34 = trunc i64 %33 to i32
  store i32 %34, ptr %7, align 4, !tbaa !4
  %35 = load ptr, ptr %3, align 8, !tbaa !11
  %36 = load ptr, ptr %6, align 8, !tbaa !11
  %37 = call i32 @strcmp(ptr noundef %35, ptr noundef %36) #12
  %38 = icmp ne i32 %37, 0
  br i1 %38, label %39, label %55

39:                                               ; preds = %31
  %40 = load ptr, ptr %6, align 8, !tbaa !11
  %41 = load i32, ptr %7, align 4, !tbaa !4
  %42 = sub nsw i32 %41, 1
  %43 = sext i32 %42 to i64
  %44 = getelementptr inbounds i8, ptr %40, i64 %43
  %45 = load i8, ptr %44, align 1, !tbaa !39
  %46 = sext i8 %45 to i32
  %47 = icmp eq i32 %46, 61
  br i1 %47, label %48, label %56

48:                                               ; preds = %39
  %49 = load ptr, ptr %3, align 8, !tbaa !11
  %50 = load ptr, ptr %6, align 8, !tbaa !11
  %51 = load i32, ptr %7, align 4, !tbaa !4
  %52 = sext i32 %51 to i64
  %53 = call i32 @strncmp(ptr noundef %49, ptr noundef %50, i64 noundef %52) #12
  %54 = icmp ne i32 %53, 0
  br i1 %54, label %56, label %55

55:                                               ; preds = %48, %31
  store i32 1, ptr %2, align 4
  store i32 1, ptr %5, align 4
  br label %57

56:                                               ; preds = %48, %39
  store i32 0, ptr %5, align 4
  br label %57

57:                                               ; preds = %56, %55, %30
  call void @llvm.lifetime.end.p0(i64 4, ptr %7) #11
  call void @llvm.lifetime.end.p0(i64 8, ptr %6) #11
  %58 = load i32, ptr %5, align 4
  switch i32 %58, label %60 [
    i32 0, label %59
  ]

59:                                               ; preds = %57
  br label %24

60:                                               ; preds = %57, %22
  call void @llvm.lifetime.end.p0(i64 8, ptr %4) #11
  %61 = load i32, ptr %2, align 4
  ret i32 %61
}

; Function Attrs: nounwind uwtable
define internal i32 @show_flag(ptr noundef %0) #0 {
  %2 = alloca i32, align 4
  %3 = alloca ptr, align 8
  store ptr %0, ptr %3, align 8, !tbaa !11
  %4 = load i32, ptr @filter, align 4, !tbaa !4
  %5 = and i32 %4, 4
  %6 = icmp ne i32 %5, 0
  br i1 %6, label %8, label %7

7:                                                ; preds = %1
  store i32 0, ptr %2, align 4
  br label %19

8:                                                ; preds = %1
  %9 = load i32, ptr @filter, align 4, !tbaa !4
  %10 = load ptr, ptr %3, align 8, !tbaa !11
  %11 = call i32 @is_rev_argument(ptr noundef %10)
  %12 = icmp ne i32 %11, 0
  %13 = select i1 %12, i32 1, i32 2
  %14 = and i32 %9, %13
  %15 = icmp ne i32 %14, 0
  br i1 %15, label %16, label %18

16:                                               ; preds = %8
  %17 = load ptr, ptr %3, align 8, !tbaa !11
  call void @show(ptr noundef %17)
  store i32 1, ptr %2, align 4
  br label %19

18:                                               ; preds = %8
  store i32 0, ptr %2, align 4
  br label %19

19:                                               ; preds = %18, %16, %7
  %20 = load i32, ptr %2, align 4
  ret i32 %20
}