; Function Attrs: nofree nounwind uwtable
define internal fastcc range(i32 0, 2) i32 @show_flag(ptr noundef readonly captures(none) %0) unnamed_addr #11 {
  %2 = load i32, ptr @filter, align 4, !tbaa !9
  %3 = and i32 %2, 4
  %.not = icmp eq i32 %3, 0
  br i1 %.not, label %show.exit, label %4

4:                                                ; preds = %1
  %5 = load i8, ptr %0, align 1, !tbaa !24
  %6 = icmp eq i8 %5, 45
  br i1 %6, label %7, label %.preheader7

7:                                                ; preds = %4
  %8 = getelementptr inbounds nuw i8, ptr %0, i64 1
  %9 = load i8, ptr %8, align 1, !tbaa !24
  %10 = zext i8 %9 to i64
  %11 = getelementptr inbounds nuw [256 x i8], ptr @sane_ctype, i64 0, i64 %10
  %12 = load i8, ptr %11, align 1, !tbaa !24
  %13 = and i8 %12, 2
  %.not.i = icmp eq i8 %13, 0
  br i1 %.not.i, label %.preheader7, label %is_rev_argument.exit

.preheader7:                                      ; preds = %7, %4
  br label %14

14:                                               ; preds = %.preheader7, %28
  %15 = phi ptr [ %30, %28 ], [ @.str.43, %.preheader7 ]
  %16 = phi ptr [ %29, %28 ], [ getelementptr inbounds nuw (i8, ptr @is_rev_argument.rev_args, i64 8), %.preheader7 ]
  %17 = tail call i32 @strcmp(ptr noundef nonnull readonly dereferenceable(1) %0, ptr noundef nonnull dereferenceable(1) %15) #20
  %.not17.i = icmp eq i32 %17, 0
  br i1 %.not17.i, label %is_rev_argument.exit, label %18

18:                                               ; preds = %14
  %19 = tail call i64 @strlen(ptr noundef nonnull dereferenceable(1) %15) #20
  %20 = shl i64 %19, 32
  %sext.i = add i64 %20, -4294967296
  %21 = ashr exact i64 %sext.i, 32
  %22 = getelementptr inbounds i8, ptr %15, i64 %21
  %23 = load i8, ptr %22, align 1, !tbaa !24
  %24 = icmp eq i8 %23, 61
  br i1 %24, label %25, label %28

25:                                               ; preds = %18
  %26 = ashr exact i64 %20, 32
  %27 = tail call i32 @strncmp(ptr noundef nonnull readonly %0, ptr noundef nonnull %15, i64 noundef %26) #20
  %.not19.i = icmp eq i32 %27, 0
  br i1 %.not19.i, label %is_rev_argument.exit, label %28

28:                                               ; preds = %25, %18
  %29 = getelementptr inbounds nuw i8, ptr %16, i64 8
  %30 = load ptr, ptr %16, align 8, !tbaa !4
  %.not16.i = icmp eq ptr %30, null
  br i1 %.not16.i, label %is_rev_argument.exit, label %14

is_rev_argument.exit:                             ; preds = %14, %25, %28, %7
  %31 = phi i32 [ 1, %7 ], [ 1, %14 ], [ 1, %25 ], [ 2, %28 ]
  %32 = and i32 %31, %2
  %.not3 = icmp eq i32 %32, 0
  br i1 %.not3, label %show.exit, label %33

33:                                               ; preds = %is_rev_argument.exit
  %.b.i = load i1, ptr @output_sq, align 4
  br i1 %.b.i, label %.preheader, label %46

.preheader:                                       ; preds = %33, %.preheader.backedge
  %.sink.sink.i = phi i32 [ %.sink.sink.i.be, %.preheader.backedge ], [ 39, %33 ]
  %.0.i4 = phi ptr [ %36, %.preheader.backedge ], [ %0, %33 ]
  %34 = load ptr, ptr @stdout, align 8, !tbaa !25
  %35 = tail call i32 @putc(i32 noundef %.sink.sink.i, ptr noundef %34)
  %36 = getelementptr inbounds nuw i8, ptr %.0.i4, i64 1
  %37 = load i8, ptr %.0.i4, align 1, !tbaa !24
  switch i8 %37, label %.split.i [
    i8 0, label %41
    i8 39, label %.split7.i
  ]

.split.i:                                         ; preds = %.preheader
  %38 = sext i8 %37 to i32
  br label %.preheader.backedge

.split7.i:                                        ; preds = %.preheader
  %39 = load ptr, ptr @stdout, align 8, !tbaa !25
  %40 = tail call i64 @fwrite(ptr nonnull @.str.117, i64 3, i64 1, ptr %39)
  br label %.preheader.backedge

.preheader.backedge:                              ; preds = %.split7.i, %.split.i
  %.sink.sink.i.be = phi i32 [ %38, %.split.i ], [ 39, %.split7.i ]
  br label %.preheader, !llvm.loop !61

41:                                               ; preds = %.preheader
  %42 = load ptr, ptr @stdout, align 8, !tbaa !25
  %43 = tail call i32 @putc(i32 noundef 39, ptr noundef %42)
  %44 = load ptr, ptr @stdout, align 8, !tbaa !25
  %45 = tail call i32 @putc(i32 noundef 32, ptr noundef %44)
  br label %show.exit

46:                                               ; preds = %33
  %47 = tail call i32 @puts(ptr noundef nonnull readonly dereferenceable(1) %0)
  br label %show.exit

show.exit:                                        ; preds = %46, %41, %is_rev_argument.exit, %1
  %.0 = phi i32 [ 0, %1 ], [ 0, %is_rev_argument.exit ], [ 1, %41 ], [ 1, %46 ]
  ret i32 %.0
}